target datalayout = "e-m:e-p270:32:32-p271:32:32-p272:64:64-i64:64-i128:128-f80:128-n8:16:32:64-S128"
target triple = "x86_64-pc-linux-gnu"

%class.CompactHashtable = type { %class.SimpleCompactHashtable }
%class.SimpleCompactHashtable = type { ptr, i32, i32, ptr, ptr }
%struct.SizeFunc = type { i8 }

@_ZL13_shared_table = internal global %class.CompactHashtable zeroinitializer, align 8
@_ZL12_local_table = internal global ptr null, align 8
@.str.19 = private unnamed_addr constant [12 x i8] c"StringTable\00", align 1
@.str.20 = private unnamed_addr constant [20 x i8] c"Shared String Table\00", align 1
@_ZN6Thread12_thr_currentE = external thread_local global ptr, align 8
@.str.59 = private unnamed_addr constant [15 x i8] c"%s statistics:\00", align 1
@.str.60 = private unnamed_addr constant [30 x i8] c"Number of buckets       : %9d\00", align 1
@.str.61 = private unnamed_addr constant [30 x i8] c"Number of entries       : %9d\00", align 1
@.str.62 = private unnamed_addr constant [30 x i8] c"Maximum bucket size     : %9d\00", align 1

; Function Attrs: mustprogress nounwind uwtable
define linkonce_odr hidden noundef ptr @_ZN6Thread15current_or_nullEv() #1 comdat align 2 {
  %1 = call align 8 ptr @llvm.threadlocal.address.p0(ptr align 8 @_ZN6Thread12_thr_currentE)
  %2 = load ptr, ptr %1, align 8
  ret ptr %2
}

; Function Attrs: mustprogress nounwind uwtable
define linkonce_odr hidden void @_ZN16CompactHashtableIPKtP7oopDescXadL_ZN11StringTable34read_string_from_compact_hashtableEPhjEEXadL_ZN16java_lang_String6equalsES3_S1_iEEE22print_table_statisticsEP12outputStreamPKc(ptr noundef nonnull align 8 dereferenceable(32) %0, ptr noundef %1, ptr noundef %2) #1 comdat align 2 {
  %4 = alloca ptr, align 8
  %5 = alloca ptr, align 8
  %6 = alloca ptr, align 8
  %7 = alloca i32, align 4
  %8 = alloca i32, align 4
  %9 = alloca i32, align 4
  %10 = alloca i32, align 4
  %11 = alloca i32, align 4
  %12 = alloca i32, align 4
  store ptr %0, ptr %4, align 8
  store ptr %1, ptr %5, align 8
  store ptr %2, ptr %6, align 8
  %13 = load ptr, ptr %4, align 8
  %14 = load ptr, ptr %5, align 8
  %15 = load ptr, ptr %6, align 8
  call void (ptr, ptr, ...) @_ZN12outputStream8print_crEPKcz(ptr noundef nonnull align 8 dereferenceable(56) %14, ptr noundef @.str.59, ptr noundef %15)
  store i32 0, ptr %7, align 4
  store i32 0, ptr %8, align 4
  store i32 0, ptr %9, align 4
  br label %16

16:                                               ; preds = %57, %3
  %17 = load i32, ptr %9, align 4
  %18 = getelementptr inbounds %class.SimpleCompactHashtable, ptr %13, i32 0, i32 1
  %19 = load i32, ptr %18, align 8
  %20 = icmp ult i32 %17, %19
  br i1 %20, label %21, label %60

21:                                               ; preds = %16
  %22 = getelementptr inbounds %class.SimpleCompactHashtable, ptr %13, i32 0, i32 3
  %23 = load ptr, ptr %22, align 8
  %24 = load i32, ptr %9, align 4
  %25 = zext i32 %24 to i64
  %26 = getelementptr inbounds i32, ptr %23, i64 %25
  %27 = load i32, ptr %26, align 4
  store i32 %27, ptr %10, align 4
  %28 = load i32, ptr %10, align 4
  %29 = and i32 %28, -1073741824
  %30 = lshr i32 %29, 30
  store i32 %30, ptr %11, align 4
  %31 = load i32, ptr %11, align 4
  %32 = icmp eq i32 %31, 1
  br i1 %32, label %33, label %34

33:                                               ; preds = %21
  store i32 1, ptr %12, align 4
  br label %47

34:                                               ; preds = %21
  %35 = getelementptr inbounds %class.SimpleCompactHashtable, ptr %13, i32 0, i32 3
  %36 = load ptr, ptr %35, align 8
  %37 = load i32, ptr %9, align 4
  %38 = add i32 %37, 1
  %39 = zext i32 %38 to i64
  %40 = getelementptr inbounds i32, ptr %36, i64 %39
  %41 = load i32, ptr %40, align 4
  %42 = and i32 %41, 1073741823
  %43 = load i32, ptr %10, align 4
  %44 = and i32 %43, 1073741823
  %45 = sub i32 %42, %44
  %46 = udiv i32 %45, 2
  store i32 %46, ptr %12, align 4
  br label %47

47:                                               ; preds = %34, %33
  %48 = load i32, ptr %12, align 4
  %49 = load i32, ptr %7, align 4
  %50 = add nsw i32 %49, %48
  store i32 %50, ptr %7, align 4
  %51 = load i32, ptr %8, align 4
  %52 = load i32, ptr %12, align 4
  %53 = icmp slt i32 %51, %52
  br i1 %53, label %54, label %56

54:                                               ; preds = %47
  %55 = load i32, ptr %12, align 4
  store i32 %55, ptr %8, align 4
  br label %56

56:                                               ; preds = %54, %47
  br label %57

57:                                               ; preds = %56
  %58 = load i32, ptr %9, align 4
  %59 = add i32 %58, 1
  store i32 %59, ptr %9, align 4
  br label %16, !llvm.loop !16

60:                                               ; preds = %16
  %61 = load ptr, ptr %5, align 8
  %62 = getelementptr inbounds %class.SimpleCompactHashtable, ptr %13, i32 0, i32 1
  %63 = load i32, ptr %62, align 8
  call void (ptr, ptr, ...) @_ZN12outputStream8print_crEPKcz(ptr noundef nonnull align 8 dereferenceable(56) %61, ptr noundef @.str.60, i32 noundef %63)
  %64 = load ptr, ptr %5, align 8
  %65 = load i32, ptr %7, align 4
  call void (ptr, ptr, ...) @_ZN12outputStream8print_crEPKcz(ptr noundef nonnull align 8 dereferenceable(56) %64, ptr noundef @.str.61, i32 noundef %65)
  %66 = load ptr, ptr %5, align 8
  %67 = load i32, ptr %8, align 4
  call void (ptr, ptr, ...) @_ZN12outputStream8print_crEPKcz(ptr noundef nonnull align 8 dereferenceable(56) %66, ptr noundef @.str.62, i32 noundef %67)
  ret void
}

; Function Attrs: mustprogress nounwind uwtable
define linkonce_odr hidden noundef zeroext i1 @_ZNK22SimpleCompactHashtable5emptyEv(ptr noundef nonnull align 8 dereferenceable(32) %0) #1 comdat align 2 {
  %2 = alloca ptr, align 8
  store ptr %0, ptr %2, align 8
  %3 = load ptr, ptr %2, align 8
  %4 = getelementptr inbounds %class.SimpleCompactHashtable, ptr %3, i32 0, i32 2
  %5 = load i32, ptr %4, align 4
  %6 = icmp eq i32 %5, 0
  ret i1 %6
}

; Function Attrs: mustprogress nounwind uwtable
define linkonce_odr hidden noundef ptr @_ZN6Thread7currentEv() #1 comdat align 2 {
  %1 = alloca ptr, align 8
  %2 = call noundef ptr @_ZN6Thread15current_or_nullEv()
  store ptr %2, ptr %1, align 8
  %3 = load ptr, ptr %1, align 8
  ret ptr %3
}

; Function Attrs: mustprogress nounwind uwtable
define hidden void @_ZN11StringTable22print_table_statisticsEP12outputStream(ptr noundef %0) #1 align 2 {
  %2 = alloca ptr, align 8
  %3 = alloca %struct.SizeFunc, align 1
  store ptr %0, ptr %2, align 8
  %4 = load ptr, ptr @_ZL12_local_table, align 8
  %5 = call noundef ptr @_ZN6Thread7currentEv()
  %6 = load ptr, ptr %2, align 8
  call void @_ZN19ConcurrentHashTableI17StringTableConfigL8MEMFLAGS11EE13statistics_toI8SizeFuncEEvP6ThreadRT_P12outputStreamPKc(ptr noundef nonnull align 8 dereferenceable(88) %4, ptr noundef %5, ptr noundef nonnull align 1 dereferenceable(1) %3, ptr noundef %6, ptr noundef @.str.19)
  %7 = call noundef zeroext i1 @_ZNK22SimpleCompactHashtable5emptyEv(ptr noundef nonnull align 8 dereferenceable(32) @_ZL13_shared_table)
  br i1 %7, label %10, label %8

8:                                                ; preds = %1
  %9 = load ptr, ptr %2, align 8
  call void @_ZN16CompactHashtableIPKtP7oopDescXadL_ZN11StringTable34read_string_from_compact_hashtableEPhjEEXadL_ZN16java_lang_String6equalsES3_S1_iEEE22print_table_statisticsEP12outputStreamPKc(ptr noundef nonnull align 8 dereferenceable(32) @_ZL13_shared_table, ptr noundef %9, ptr noundef @.str.20)
  br label %10

10:                                               ; preds = %8, %1
  ret void
}