; Function Attrs: mustprogress nounwind uwtable
define hidden void @_ZN11StringTable22print_table_statisticsEP12outputStream(ptr noundef %0) local_unnamed_addr #0 align 2 {
  %2 = alloca %struct.SizeFunc, align 1
  %3 = load ptr, ptr @_ZL12_local_table, align 8
  %4 = tail call align 8 ptr @llvm.threadlocal.address.p0(ptr align 8 @_ZN6Thread12_thr_currentE)
  %5 = load ptr, ptr %4, align 8
  call void @_ZN19ConcurrentHashTableI17StringTableConfigL8MEMFLAGS11EE13statistics_toI8SizeFuncEEvP6ThreadRT_P12outputStreamPKc(ptr noundef nonnull align 8 dereferenceable(88) %3, ptr noundef %5, ptr noundef nonnull align 1 dereferenceable(1) %2, ptr noundef %0, ptr noundef nonnull @.str.19)
  %6 = load i32, ptr getelementptr inbounds (i8, ptr @_ZL13_shared_table, i64 12), align 4
  %7 = icmp eq i32 %6, 0
  br i1 %7, label %23, label %8

8:                                                ; preds = %1
  call void (ptr, ptr, ...) @_ZN12outputStream8print_crEPKcz(ptr noundef nonnull align 8 dereferenceable(56) %0, ptr noundef nonnull @.str.59, ptr noundef nonnull @.str.20) #17
  %9 = load i32, ptr getelementptr inbounds (i8, ptr @_ZL13_shared_table, i64 8), align 8
  %.not.i = icmp eq i32 %9, 0
  br i1 %.not.i, label %_ZN16CompactHashtableIPKtP7oopDescXadL_ZN11StringTable34read_string_from_compact_hashtableEPhjEEXadL_ZN16java_lang_String6equalsES3_S1_iEEE22print_table_statisticsEP12outputStreamPKc.exit, label %.lr.ph.i

.lr.ph.i:                                         ; preds = %8
  %10 = load ptr, ptr getelementptr inbounds (i8, ptr @_ZL13_shared_table, i64 16), align 8
  %wide.trip.count.i = zext i32 %9 to i64
  br label %11

11:                                               ; preds = %._crit_edge29.i, %.lr.ph.i
  %indvars.iv.i = phi i64 [ 0, %.lr.ph.i ], [ %.pre.i, %._crit_edge29.i ]
  %.01925.i = phi i32 [ 0, %.lr.ph.i ], [ %22, %._crit_edge29.i ]
  %.02024.i = phi i32 [ 0, %.lr.ph.i ], [ %spec.select.i, %._crit_edge29.i ]
  %12 = getelementptr inbounds i32, ptr %10, i64 %indvars.iv.i
  %13 = load i32, ptr %12, align 4
  %.mask.i = and i32 %13, -1073741824
  %14 = icmp eq i32 %.mask.i, 1073741824
  %.pre.i = add nuw nsw i64 %indvars.iv.i, 1
  br i1 %14, label %._crit_edge29.i, label %15

15:                                               ; preds = %11
  %16 = getelementptr inbounds i32, ptr %10, i64 %.pre.i
  %17 = load i32, ptr %16, align 4
  %18 = and i32 %17, 1073741823
  %19 = and i32 %13, 1073741823
  %20 = sub nsw i32 %18, %19
  %21 = lshr i32 %20, 1
  br label %._crit_edge29.i

._crit_edge29.i:                                  ; preds = %15, %11
  %.0.i = phi i32 [ %21, %15 ], [ 1, %11 ]
  %22 = add nuw nsw i32 %.0.i, %.01925.i
  %spec.select.i = call i32 @llvm.smax.i32(i32 %.02024.i, i32 %.0.i)
  %exitcond.not.i = icmp eq i64 %.pre.i, %wide.trip.count.i
  br i1 %exitcond.not.i, label %_ZN16CompactHashtableIPKtP7oopDescXadL_ZN11StringTable34read_string_from_compact_hashtableEPhjEEXadL_ZN16java_lang_String6equalsES3_S1_iEEE22print_table_statisticsEP12outputStreamPKc.exit, label %11, !llvm.loop !27

_ZN16CompactHashtableIPKtP7oopDescXadL_ZN11StringTable34read_string_from_compact_hashtableEPhjEEXadL_ZN16java_lang_String6equalsES3_S1_iEEE22print_table_statisticsEP12outputStreamPKc.exit: ; preds = %._crit_edge29.i, %8
  %.020.lcssa.i = phi i32 [ 0, %8 ], [ %spec.select.i, %._crit_edge29.i ]
  %.019.lcssa.i = phi i32 [ 0, %8 ], [ %22, %._crit_edge29.i ]
  call void (ptr, ptr, ...) @_ZN12outputStream8print_crEPKcz(ptr noundef nonnull align 8 dereferenceable(56) %0, ptr noundef nonnull @.str.60, i32 noundef %9) #17
  call void (ptr, ptr, ...) @_ZN12outputStream8print_crEPKcz(ptr noundef nonnull align 8 dereferenceable(56) %0, ptr noundef nonnull @.str.61, i32 noundef %.019.lcssa.i) #17
  call void (ptr, ptr, ...) @_ZN12outputStream8print_crEPKcz(ptr noundef nonnull align 8 dereferenceable(56) %0, ptr noundef nonnull @.str.62, i32 noundef %.020.lcssa.i) #17
  br label %23

23:                                               ; preds = %_ZN16CompactHashtableIPKtP7oopDescXadL_ZN11StringTable34read_string_from_compact_hashtableEPhjEEXadL_ZN16java_lang_String6equalsES3_S1_iEEE22print_table_statisticsEP12outputStreamPKc.exit, %1
  ret void
}